; Function Attrs: mustprogress nounwind uwtable
define hidden void @_ZN25ShenandoahGCStateResetterD2Ev(ptr nocapture noundef nonnull readonly align 8 dereferenceable(9) %0) unnamed_addr #0 align 2 {
  %2 = load ptr, ptr %0, align 8
  %3 = getelementptr inbounds i8, ptr %0, i64 8
  %4 = load i8, ptr %3, align 8
  %5 = getelementptr inbounds i8, ptr %2, i64 769
  br label %6

6:                                                ; preds = %9, %1
  %7 = load volatile i8, ptr %5, align 1
  tail call void asm sideeffect "", "~{memory},~{dirflag},~{fpsr},~{flags}"() #4, !srcloc !7
  %8 = and i8 %7, %4
  %.not.i = icmp eq i8 %8, 0
  br i1 %.not.i, label %9, label %_ZN22ShenandoahSharedBitmap3setEj.exit

9:                                                ; preds = %6
  %10 = or i8 %7, %4
  %11 = tail call noundef i8 asm sideeffect "lock cmpxchgb $1,($3)", "={ax},q,{ax},r,~{cc},~{memory},~{dirflag},~{fpsr},~{flags}"(i8 %10, i8 %7, ptr nonnull %5) #4, !srcloc !8
  %12 = icmp eq i8 %11, %7
  br i1 %12, label %_ZN22ShenandoahSharedBitmap3setEj.exit, label %6, !llvm.loop !9

_ZN22ShenandoahSharedBitmap3setEj.exit:           ; preds = %6, %9
  ret void
}